; Function Attrs: nounwind uwtable
define range(i32 -1, 1) i32 @H5O__get_rc_test(ptr noundef %0, ptr noundef writeonly captures(none) %1) local_unnamed_addr #0 {
  %3 = load i8, ptr @H5O_init_g, align 1, !tbaa !3, !range !7, !noundef !8
  %4 = trunc nuw i8 %3 to i1
  %5 = load i8, ptr @H5_libterm_g, align 1, !range !7
  %6 = trunc nuw i8 %5 to i1
  %7 = xor i1 %6, true
  %8 = select i1 %4, i1 true, i1 %7
  br i1 %8, label %9, label %24, !prof !9

9:                                                ; preds = %2
  %10 = tail call ptr @H5O_protect(ptr noundef %0, i32 noundef 128, i1 noundef zeroext false) #4
  %11 = icmp eq ptr %10, null
  br i1 %11, label %.thread, label %15

.thread:                                          ; preds = %9
  %12 = load i64, ptr @H5E_OHDR_g, align 8, !tbaa !10
  %13 = load i64, ptr @H5E_CANTPROTECT_g, align 8, !tbaa !10
  %14 = tail call i32 (ptr, ptr, i32, i64, i64, ptr, ...) @H5E_printf_stack(ptr noundef nonnull @.str, ptr noundef nonnull @__func__.H5O__get_rc_test, i32 noundef 594, i64 noundef %12, i64 noundef %13, ptr noundef nonnull @.str.15) #4
  br label %24

15:                                               ; preds = %9
  %16 = getelementptr inbounds nuw i8, ptr %10, i64 284
  %17 = load i32, ptr %16, align 4, !tbaa !52
  store i32 %17, ptr %1, align 4, !tbaa !53
  %18 = tail call i32 @H5O_unprotect(ptr noundef %0, ptr noundef nonnull %10, i32 noundef 0) #4
  %19 = icmp slt i32 %18, 0
  br i1 %19, label %20, label %24

20:                                               ; preds = %15
  %21 = load i64, ptr @H5E_OHDR_g, align 8, !tbaa !10
  %22 = load i64, ptr @H5E_CANTUNPROTECT_g, align 8, !tbaa !10
  %23 = tail call i32 (ptr, ptr, i32, i64, i64, ptr, ...) @H5E_printf_stack(ptr noundef nonnull @.str, ptr noundef nonnull @__func__.H5O__get_rc_test, i32 noundef 602, i64 noundef %21, i64 noundef %22, ptr noundef nonnull @.str.16) #4
  br label %24

24:                                               ; preds = %.thread, %15, %20, %2
  %.0 = phi i32 [ -1, %20 ], [ 0, %15 ], [ 0, %2 ], [ -1, %.thread ]
  ret i32 %.0
}